; Function Attrs: nounwind uwtable
define void @stbir__decode_uint8_linear(ptr noundef %0, i32 noundef %1, ptr noundef readonly captures(none) %2) #0 {
  %4 = sext i32 %1 to i64
  %.idx = shl nsw i64 %4, 2
  %5 = getelementptr inbounds i8, ptr %0, i64 %.idx
  %6 = getelementptr inbounds i8, ptr %2, i64 %4
  %7 = getelementptr inbounds i8, ptr %6, i64 -16
  %8 = icmp sgt i32 %1, 15
  br i1 %8, label %9, label %.preheader77

.preheader77:                                     ; preds = %3
  %.not79 = icmp slt i32 %1, 4
  br i1 %.not79, label %.preheader, label %.lr.ph.preheader

.lr.ph.preheader:                                 ; preds = %.preheader77
  %.278 = getelementptr inbounds nuw i8, ptr %0, i64 16
  br label %.lr.ph

9:                                                ; preds = %3
  %10 = getelementptr inbounds i8, ptr %5, i64 -64
  br label %11

11:                                               ; preds = %11, %9
  %.065 = phi ptr [ %2, %9 ], [ %.166, %11 ]
  %.064 = phi ptr [ %0, %9 ], [ %.1, %11 ]
  tail call void asm sideeffect "", "r,~{dirflag},~{fpsr},~{flags}"(ptr %.064) #24, !srcloc !146
  %12 = load <16 x i8>, ptr %.065, align 1, !tbaa !4
  %13 = shufflevector <16 x i8> %12, <16 x i8> <i8 0, i8 0, i8 0, i8 0, i8 0, i8 0, i8 0, i8 0, i8 poison, i8 poison, i8 poison, i8 poison, i8 poison, i8 poison, i8 poison, i8 poison>, <16 x i32> <i32 0, i32 16, i32 1, i32 17, i32 2, i32 18, i32 3, i32 19, i32 4, i32 20, i32 5, i32 21, i32 6, i32 22, i32 7, i32 23>
  %14 = shufflevector <16 x i8> %12, <16 x i8> <i8 poison, i8 poison, i8 poison, i8 poison, i8 poison, i8 poison, i8 poison, i8 poison, i8 0, i8 0, i8 0, i8 0, i8 0, i8 0, i8 0, i8 0>, <16 x i32> <i32 8, i32 24, i32 9, i32 25, i32 10, i32 26, i32 11, i32 27, i32 12, i32 28, i32 13, i32 29, i32 14, i32 30, i32 15, i32 31>
  %15 = bitcast <16 x i8> %13 to <8 x i16>
  %16 = shufflevector <8 x i16> %15, <8 x i16> <i16 0, i16 0, i16 0, i16 0, i16 poison, i16 poison, i16 poison, i16 poison>, <8 x i32> <i32 0, i32 8, i32 1, i32 9, i32 2, i32 10, i32 3, i32 11>
  %17 = shufflevector <8 x i16> %15, <8 x i16> <i16 poison, i16 poison, i16 poison, i16 poison, i16 0, i16 0, i16 0, i16 0>, <8 x i32> <i32 4, i32 12, i32 5, i32 13, i32 6, i32 14, i32 7, i32 15>
  %18 = bitcast <16 x i8> %14 to <8 x i16>
  %19 = shufflevector <8 x i16> %18, <8 x i16> <i16 0, i16 0, i16 0, i16 0, i16 poison, i16 poison, i16 poison, i16 poison>, <8 x i32> <i32 0, i32 8, i32 1, i32 9, i32 2, i32 10, i32 3, i32 11>
  %20 = shufflevector <8 x i16> %18, <8 x i16> <i16 poison, i16 poison, i16 poison, i16 poison, i16 0, i16 0, i16 0, i16 0>, <8 x i32> <i32 4, i32 12, i32 5, i32 13, i32 6, i32 14, i32 7, i32 15>
  %21 = bitcast <8 x i16> %16 to <4 x i32>
  %22 = uitofp nneg <4 x i32> %21 to <4 x float>
  %23 = bitcast <8 x i16> %17 to <4 x i32>
  %24 = uitofp nneg <4 x i32> %23 to <4 x float>
  %25 = bitcast <8 x i16> %19 to <4 x i32>
  %26 = uitofp nneg <4 x i32> %25 to <4 x float>
  %27 = bitcast <8 x i16> %20 to <4 x i32>
  %28 = uitofp nneg <4 x i32> %27 to <4 x float>
  store <4 x float> %22, ptr %.064, align 1, !tbaa !4
  %29 = getelementptr inbounds nuw i8, ptr %.064, i64 16
  store <4 x float> %24, ptr %29, align 1, !tbaa !4
  %30 = getelementptr inbounds nuw i8, ptr %.064, i64 32
  store <4 x float> %26, ptr %30, align 1, !tbaa !4
  %31 = getelementptr inbounds nuw i8, ptr %.064, i64 48
  store <4 x float> %28, ptr %31, align 1, !tbaa !4
  %32 = getelementptr inbounds nuw i8, ptr %.064, i64 64
  %33 = getelementptr inbounds nuw i8, ptr %.065, i64 16
  %.not73 = icmp ugt ptr %32, %10
  %34 = icmp eq ptr %32, %5
  %. = select i1 %34, ptr %33, ptr %7
  %.74 = select i1 %34, ptr %32, ptr %10
  %.166 = select i1 %.not73, ptr %., ptr %33
  %.1 = select i1 %.not73, ptr %.74, ptr %32
  br i1 %34, label %.loopexit, label %11

.preheader:                                       ; preds = %.lr.ph, %.preheader77
  %.267.lcssa = phi ptr [ %2, %.preheader77 ], [ %50, %.lr.ph ]
  %.pn.lcssa = phi ptr [ %0, %.preheader77 ], [ %.282, %.lr.ph ]
  %35 = icmp ult ptr %.pn.lcssa, %5
  br i1 %35, label %.lr.ph86, label %.loopexit

.lr.ph:                                           ; preds = %.lr.ph.preheader, %.lr.ph
  %.282 = phi ptr [ %.2, %.lr.ph ], [ %.278, %.lr.ph.preheader ]
  %.pn81 = phi ptr [ %.282, %.lr.ph ], [ %0, %.lr.ph.preheader ]
  %.26780 = phi ptr [ %50, %.lr.ph ], [ %2, %.lr.ph.preheader ]
  tail call void asm sideeffect "", "r,~{dirflag},~{fpsr},~{flags}"(ptr nonnull %.282) #24, !srcloc !147
  %36 = load i8, ptr %.26780, align 1, !tbaa !4
  %37 = uitofp i8 %36 to float
  store float %37, ptr %.pn81, align 4, !tbaa !50
  %38 = getelementptr inbounds nuw i8, ptr %.26780, i64 1
  %39 = load i8, ptr %38, align 1, !tbaa !4
  %40 = uitofp i8 %39 to float
  %41 = getelementptr inbounds nuw i8, ptr %.pn81, i64 4
  store float %40, ptr %41, align 4, !tbaa !50
  %42 = getelementptr inbounds nuw i8, ptr %.26780, i64 2
  %43 = load i8, ptr %42, align 1, !tbaa !4
  %44 = uitofp i8 %43 to float
  %45 = getelementptr inbounds nuw i8, ptr %.pn81, i64 8
  store float %44, ptr %45, align 4, !tbaa !50
  %46 = getelementptr inbounds nuw i8, ptr %.26780, i64 3
  %47 = load i8, ptr %46, align 1, !tbaa !4
  %48 = uitofp i8 %47 to float
  %49 = getelementptr inbounds nuw i8, ptr %.pn81, i64 12
  store float %48, ptr %49, align 4, !tbaa !50
  %50 = getelementptr inbounds nuw i8, ptr %.26780, i64 4
  %.2 = getelementptr inbounds nuw i8, ptr %.282, i64 16
  %.not = icmp ugt ptr %.2, %5
  br i1 %.not, label %.preheader, label %.lr.ph, !llvm.loop !148

.lr.ph86:                                         ; preds = %.preheader, %.lr.ph86
  %.385 = phi ptr [ %53, %.lr.ph86 ], [ %.pn.lcssa, %.preheader ]
  %.36884 = phi ptr [ %54, %.lr.ph86 ], [ %.267.lcssa, %.preheader ]
  tail call void asm sideeffect "", "r,~{dirflag},~{fpsr},~{flags}"(ptr nonnull %.385) #24, !srcloc !149
  %51 = load i8, ptr %.36884, align 1, !tbaa !4
  %52 = uitofp i8 %51 to float
  store float %52, ptr %.385, align 4, !tbaa !50
  %53 = getelementptr inbounds nuw i8, ptr %.385, i64 4
  %54 = getelementptr inbounds nuw i8, ptr %.36884, i64 1
  %55 = icmp ult ptr %53, %5
  br i1 %55, label %.lr.ph86, label %.loopexit, !llvm.loop !150

.loopexit:                                        ; preds = %.lr.ph86, %11, %.preheader
  ret void
}